target datalayout = "e-m:e-p270:32:32-p271:32:32-p272:64:64-i64:64-i128:128-f80:128-n8:16:32:64-S128"
target triple = "x86_64-pc-linux-gnu"

%struct._ts = type { ptr, ptr, ptr, i64, %struct.anon.0, i32, i32, i32, i32, i32, i32, i32, i32, ptr, ptr, ptr, ptr, ptr, ptr, ptr, ptr, i32, ptr, i64, i64, ptr, i64, i32, ptr, ptr, ptr, i64, i64, ptr, ptr, ptr, %struct._err_stackitem, ptr, i64, ptr, ptr }
%struct.anon.0 = type { i32 }
%struct._err_stackitem = type { ptr, ptr }
%struct.anon.806 = type { i64 }

@.str.80 = private unnamed_addr constant [39 x i8] c"../cpython/Modules/_testinternalcapi.c\00", align 1
@pending_identify_result = internal global %struct.anon.806 zeroinitializer, align 8
@.str.215 = private unnamed_addr constant [39 x i8] c"pending_identify_result.interpid == -1\00", align 1
@__PRETTY_FUNCTION__._pending_identify_callback = private unnamed_addr constant [39 x i8] c"int _pending_identify_callback(void *)\00", align 1

; Function Attrs: nounwind uwtable
define internal i32 @_pending_identify_callback(ptr noundef %0) #0 {
  %2 = alloca ptr, align 8
  %3 = alloca ptr, align 8
  %4 = alloca ptr, align 8
  store ptr %0, ptr %2, align 8, !tbaa !8
  call void @llvm.lifetime.start.p0(i64 8, ptr %3) #10
  %5 = load ptr, ptr %2, align 8, !tbaa !8
  store ptr %5, ptr %3, align 8, !tbaa !8
  %6 = load i64, ptr @pending_identify_result, align 8, !tbaa !137
  %7 = icmp eq i64 %6, -1
  br i1 %7, label %8, label %9

8:                                                ; preds = %1
  br label %11

9:                                                ; preds = %1
  call void @__assert_fail(ptr noundef @.str.215, ptr noundef @.str.80, i32 noundef 1061, ptr noundef @__PRETTY_FUNCTION__._pending_identify_callback) #11
  unreachable

10:                                               ; No predecessors!
  br label %11

11:                                               ; preds = %10, %8
  call void @llvm.lifetime.start.p0(i64 8, ptr %4) #10
  %12 = call ptr @PyThreadState_Get()
  store ptr %12, ptr %4, align 8, !tbaa !9
  %13 = load ptr, ptr %4, align 8, !tbaa !9
  %14 = getelementptr inbounds nuw %struct._ts, ptr %13, i32 0, i32 2
  %15 = load ptr, ptr %14, align 8, !tbaa !50
  %16 = call i64 @PyInterpreterState_GetID(ptr noundef %15)
  store i64 %16, ptr @pending_identify_result, align 8, !tbaa !137
  %17 = load ptr, ptr %3, align 8, !tbaa !8
  call void @PyThread_release_lock(ptr noundef %17)
  call void @llvm.lifetime.end.p0(i64 8, ptr %4) #10
  call void @llvm.lifetime.end.p0(i64 8, ptr %3) #10
  ret i32 0
}