; Function Attrs: nounwind uwtable
define internal noundef i32 @_pending_identify_callback(ptr noundef %0) #0 {
  %2 = load i64, ptr @pending_identify_result.0, align 8, !tbaa !153
  %3 = icmp eq i64 %2, -1
  br i1 %3, label %5, label %4

4:                                                ; preds = %1
  tail call void @__assert_fail(ptr noundef nonnull @.str.215, ptr noundef nonnull @.str.80, i32 noundef 1061, ptr noundef nonnull @__PRETTY_FUNCTION__._pending_identify_callback) #12
  unreachable

5:                                                ; preds = %1
  %6 = tail call ptr @PyThreadState_Get() #11
  %7 = getelementptr inbounds nuw i8, ptr %6, i64 16
  %8 = load ptr, ptr %7, align 8, !tbaa !45
  %9 = tail call i64 @PyInterpreterState_GetID(ptr noundef %8) #11
  store i64 %9, ptr @pending_identify_result.0, align 8, !tbaa !153
  tail call void @PyThread_release_lock(ptr noundef %0) #11
  ret i32 0
}